target datalayout = "e-m:e-p270:32:32-p271:32:32-p272:64:64-i64:64-i128:128-f80:128-n8:16:32:64-S128"
target triple = "x86_64-pc-linux-gnu"

%struct.ffc_params_st = type { ptr, ptr, ptr, ptr, ptr, i64, i32, i32, i32, i32, i32, ptr, ptr, i32 }

@.str.9 = private unnamed_addr constant [36 x i8] c"../openssl/test/ffc_internal_test.c\00", align 1
@.str.30 = private unnamed_addr constant [34 x i8] c"dh = DH_new_by_nid(NID_ffdhe2048)\00", align 1
@.str.46 = private unnamed_addr constant [16 x i8] c"priv = BN_new()\00", align 1
@.str.48 = private unnamed_addr constant [53 x i8] c"ossl_ffc_validate_private_key(params->q, priv, &res)\00", align 1
@.str.57 = private unnamed_addr constant [26 x i8] c"ctx = BN_CTX_new_ex(NULL)\00", align 1
@.str.58 = private unnamed_addr constant [59 x i8] c"ossl_ffc_generate_private_key(ctx, params, 220, 112, priv)\00", align 1
@.str.59 = private unnamed_addr constant [61 x i8] c"ossl_ffc_generate_private_key(ctx, params, N + 1, 112, priv)\00", align 1
@.str.60 = private unnamed_addr constant [55 x i8] c"ossl_ffc_generate_private_key(ctx, params, N, 0, priv)\00", align 1
@.str.61 = private unnamed_addr constant [57 x i8] c"ossl_ffc_generate_private_key(ctx, params, N, 112, priv)\00", align 1
@.str.62 = private unnamed_addr constant [61 x i8] c"ossl_ffc_generate_private_key(ctx, params, N / 2, 112, priv)\00", align 1
@.str.63 = private unnamed_addr constant [112 x i8] c"ossl_ffc_generate_private_key(ctx, params, 0, ossl_ifc_ffc_compute_security_bits(BN_num_bits(params->p)), priv)\00", align 1
@.str.64 = private unnamed_addr constant [18 x i8] c"BN_num_bits(priv)\00", align 1
@.str.65 = private unnamed_addr constant [4 x i8] c"225\00", align 1

; Function Attrs: nounwind uwtable
define internal i32 @ffc_private_gen_test(i32 noundef %0) #0 {
  %2 = alloca i32, align 4
  %3 = alloca i32, align 4
  %4 = alloca i32, align 4
  %5 = alloca i32, align 4
  %6 = alloca ptr, align 8
  %7 = alloca ptr, align 8
  %8 = alloca ptr, align 8
  %9 = alloca ptr, align 8
  store i32 %0, ptr %2, align 4, !tbaa !4
  call void @llvm.lifetime.start.p0(i64 4, ptr %3) #3
  store i32 0, ptr %3, align 4, !tbaa !4
  call void @llvm.lifetime.start.p0(i64 4, ptr %4) #3
  store i32 -1, ptr %4, align 4, !tbaa !4
  call void @llvm.lifetime.start.p0(i64 4, ptr %5) #3
  call void @llvm.lifetime.start.p0(i64 8, ptr %6) #3
  call void @llvm.lifetime.start.p0(i64 8, ptr %7) #3
  store ptr null, ptr %7, align 8, !tbaa !8
  call void @llvm.lifetime.start.p0(i64 8, ptr %8) #3
  store ptr null, ptr %8, align 8, !tbaa !17
  call void @llvm.lifetime.start.p0(i64 8, ptr %9) #3
  store ptr null, ptr %9, align 8, !tbaa !23
  %10 = call ptr @BN_CTX_new_ex(ptr noundef null)
  store ptr %10, ptr %9, align 8, !tbaa !23
  %11 = call i32 @test_ptr(ptr noundef @.str.9, i32 noundef 614, ptr noundef @.str.57, ptr noundef %10)
  %12 = icmp ne i32 %11, 0
  br i1 %12, label %14, label %13

13:                                               ; preds = %1
  br label %142

14:                                               ; preds = %1
  %15 = call ptr @BN_new()
  store ptr %15, ptr %7, align 8, !tbaa !8
  %16 = call i32 @test_ptr(ptr noundef @.str.9, i32 noundef 617, ptr noundef @.str.46, ptr noundef %15)
  %17 = icmp ne i32 %16, 0
  br i1 %17, label %19, label %18

18:                                               ; preds = %14
  br label %142

19:                                               ; preds = %14
  %20 = call ptr @DH_new_by_nid(i32 noundef 1126)
  store ptr %20, ptr %8, align 8, !tbaa !17
  %21 = call i32 @test_ptr(ptr noundef @.str.9, i32 noundef 620, ptr noundef @.str.30, ptr noundef %20)
  %22 = icmp ne i32 %21, 0
  br i1 %22, label %24, label %23

23:                                               ; preds = %19
  br label %142

24:                                               ; preds = %19
  %25 = load ptr, ptr %8, align 8, !tbaa !17
  %26 = call ptr @ossl_dh_get0_params(ptr noundef %25)
  store ptr %26, ptr %6, align 8, !tbaa !19
  %27 = load ptr, ptr %6, align 8, !tbaa !19
  %28 = getelementptr inbounds nuw %struct.ffc_params_st, ptr %27, i32 0, i32 1
  %29 = load ptr, ptr %28, align 8, !tbaa !22
  %30 = call i32 @BN_num_bits(ptr noundef %29)
  store i32 %30, ptr %5, align 4, !tbaa !4
  %31 = load ptr, ptr %9, align 8, !tbaa !23
  %32 = load ptr, ptr %6, align 8, !tbaa !19
  %33 = load ptr, ptr %7, align 8, !tbaa !8
  %34 = call i32 @ossl_ffc_generate_private_key(ptr noundef %31, ptr noundef %32, i32 noundef 220, i32 noundef 112, ptr noundef %33)
  %35 = icmp ne i32 %34, 0
  %36 = zext i1 %35 to i32
  %37 = call i32 @test_false(ptr noundef @.str.9, i32 noundef 626, ptr noundef @.str.58, i32 noundef %36)
  %38 = icmp ne i32 %37, 0
  br i1 %38, label %40, label %39

39:                                               ; preds = %24
  br label %142

40:                                               ; preds = %24
  %41 = load ptr, ptr %9, align 8, !tbaa !23
  %42 = load ptr, ptr %6, align 8, !tbaa !19
  %43 = load i32, ptr %5, align 4, !tbaa !4
  %44 = add nsw i32 %43, 1
  %45 = load ptr, ptr %7, align 8, !tbaa !8
  %46 = call i32 @ossl_ffc_generate_private_key(ptr noundef %41, ptr noundef %42, i32 noundef %44, i32 noundef 112, ptr noundef %45)
  %47 = icmp ne i32 %46, 0
  %48 = zext i1 %47 to i32
  %49 = call i32 @test_false(ptr noundef @.str.9, i32 noundef 629, ptr noundef @.str.59, i32 noundef %48)
  %50 = icmp ne i32 %49, 0
  br i1 %50, label %52, label %51

51:                                               ; preds = %40
  br label %142

52:                                               ; preds = %40
  %53 = load ptr, ptr %9, align 8, !tbaa !23
  %54 = load ptr, ptr %6, align 8, !tbaa !19
  %55 = load i32, ptr %5, align 4, !tbaa !4
  %56 = load ptr, ptr %7, align 8, !tbaa !8
  %57 = call i32 @ossl_ffc_generate_private_key(ptr noundef %53, ptr noundef %54, i32 noundef %55, i32 noundef 0, ptr noundef %56)
  %58 = icmp ne i32 %57, 0
  %59 = zext i1 %58 to i32
  %60 = call i32 @test_false(ptr noundef @.str.9, i32 noundef 632, ptr noundef @.str.60, i32 noundef %59)
  %61 = icmp ne i32 %60, 0
  br i1 %61, label %63, label %62

62:                                               ; preds = %52
  br label %142

63:                                               ; preds = %52
  %64 = load ptr, ptr %9, align 8, !tbaa !23
  %65 = load ptr, ptr %6, align 8, !tbaa !19
  %66 = load i32, ptr %5, align 4, !tbaa !4
  %67 = load ptr, ptr %7, align 8, !tbaa !8
  %68 = call i32 @ossl_ffc_generate_private_key(ptr noundef %64, ptr noundef %65, i32 noundef %66, i32 noundef 112, ptr noundef %67)
  %69 = icmp ne i32 %68, 0
  %70 = zext i1 %69 to i32
  %71 = call i32 @test_true(ptr noundef @.str.9, i32 noundef 635, ptr noundef @.str.61, i32 noundef %70)
  %72 = icmp ne i32 %71, 0
  br i1 %72, label %74, label %73

73:                                               ; preds = %63
  br label %142

74:                                               ; preds = %63
  %75 = load ptr, ptr %6, align 8, !tbaa !19
  %76 = getelementptr inbounds nuw %struct.ffc_params_st, ptr %75, i32 0, i32 1
  %77 = load ptr, ptr %76, align 8, !tbaa !22
  %78 = load ptr, ptr %7, align 8, !tbaa !8
  %79 = call i32 @ossl_ffc_validate_private_key(ptr noundef %77, ptr noundef %78, ptr noundef %4)
  %80 = icmp ne i32 %79, 0
  %81 = zext i1 %80 to i32
  %82 = call i32 @test_true(ptr noundef @.str.9, i32 noundef 638, ptr noundef @.str.48, i32 noundef %81)
  %83 = icmp ne i32 %82, 0
  br i1 %83, label %85, label %84

84:                                               ; preds = %74
  br label %142

85:                                               ; preds = %74
  %86 = load ptr, ptr %9, align 8, !tbaa !23
  %87 = load ptr, ptr %6, align 8, !tbaa !19
  %88 = load i32, ptr %5, align 4, !tbaa !4
  %89 = sdiv i32 %88, 2
  %90 = load ptr, ptr %7, align 8, !tbaa !8
  %91 = call i32 @ossl_ffc_generate_private_key(ptr noundef %86, ptr noundef %87, i32 noundef %89, i32 noundef 112, ptr noundef %90)
  %92 = icmp ne i32 %91, 0
  %93 = zext i1 %92 to i32
  %94 = call i32 @test_true(ptr noundef @.str.9, i32 noundef 641, ptr noundef @.str.62, i32 noundef %93)
  %95 = icmp ne i32 %94, 0
  br i1 %95, label %97, label %96

96:                                               ; preds = %85
  br label %142

97:                                               ; preds = %85
  %98 = load ptr, ptr %6, align 8, !tbaa !19
  %99 = getelementptr inbounds nuw %struct.ffc_params_st, ptr %98, i32 0, i32 1
  %100 = load ptr, ptr %99, align 8, !tbaa !22
  %101 = load ptr, ptr %7, align 8, !tbaa !8
  %102 = call i32 @ossl_ffc_validate_private_key(ptr noundef %100, ptr noundef %101, ptr noundef %4)
  %103 = icmp ne i32 %102, 0
  %104 = zext i1 %103 to i32
  %105 = call i32 @test_true(ptr noundef @.str.9, i32 noundef 643, ptr noundef @.str.48, i32 noundef %104)
  %106 = icmp ne i32 %105, 0
  br i1 %106, label %108, label %107

107:                                              ; preds = %97
  br label %142

108:                                              ; preds = %97
  %109 = load ptr, ptr %9, align 8, !tbaa !23
  %110 = load ptr, ptr %6, align 8, !tbaa !19
  %111 = load ptr, ptr %6, align 8, !tbaa !19
  %112 = getelementptr inbounds nuw %struct.ffc_params_st, ptr %111, i32 0, i32 0
  %113 = load ptr, ptr %112, align 8, !tbaa !21
  %114 = call i32 @BN_num_bits(ptr noundef %113)
  %115 = call zeroext i16 @ossl_ifc_ffc_compute_security_bits(i32 noundef %114)
  %116 = zext i16 %115 to i32
  %117 = load ptr, ptr %7, align 8, !tbaa !8
  %118 = call i32 @ossl_ffc_generate_private_key(ptr noundef %109, ptr noundef %110, i32 noundef 0, i32 noundef %116, ptr noundef %117)
  %119 = icmp ne i32 %118, 0
  %120 = zext i1 %119 to i32
  %121 = call i32 @test_true(ptr noundef @.str.9, i32 noundef 648, ptr noundef @.str.63, i32 noundef %120)
  %122 = icmp ne i32 %121, 0
  br i1 %122, label %124, label %123

123:                                              ; preds = %108
  br label %142

124:                                              ; preds = %108
  %125 = load ptr, ptr %7, align 8, !tbaa !8
  %126 = call i32 @BN_num_bits(ptr noundef %125)
  %127 = call i32 @test_int_le(ptr noundef @.str.9, i32 noundef 650, ptr noundef @.str.64, ptr noundef @.str.65, i32 noundef %126, i32 noundef 225)
  %128 = icmp ne i32 %127, 0
  br i1 %128, label %130, label %129

129:                                              ; preds = %124
  br label %142

130:                                              ; preds = %124
  %131 = load ptr, ptr %6, align 8, !tbaa !19
  %132 = getelementptr inbounds nuw %struct.ffc_params_st, ptr %131, i32 0, i32 1
  %133 = load ptr, ptr %132, align 8, !tbaa !22
  %134 = load ptr, ptr %7, align 8, !tbaa !8
  %135 = call i32 @ossl_ffc_validate_private_key(ptr noundef %133, ptr noundef %134, ptr noundef %4)
  %136 = icmp ne i32 %135, 0
  %137 = zext i1 %136 to i32
  %138 = call i32 @test_true(ptr noundef @.str.9, i32 noundef 652, ptr noundef @.str.48, i32 noundef %137)
  %139 = icmp ne i32 %138, 0
  br i1 %139, label %141, label %140

140:                                              ; preds = %130
  br label %142

141:                                              ; preds = %130
  store i32 1, ptr %3, align 4, !tbaa !4
  br label %142

142:                                              ; preds = %141, %140, %129, %123, %107, %96, %84, %73, %62, %51, %39, %23, %18, %13
  %143 = load ptr, ptr %8, align 8, !tbaa !17
  call void @DH_free(ptr noundef %143)
  %144 = load ptr, ptr %7, align 8, !tbaa !8
  call void @BN_free(ptr noundef %144)
  %145 = load ptr, ptr %9, align 8, !tbaa !23
  call void @BN_CTX_free(ptr noundef %145)
  %146 = load i32, ptr %3, align 4, !tbaa !4
  call void @llvm.lifetime.end.p0(i64 8, ptr %9) #3
  call void @llvm.lifetime.end.p0(i64 8, ptr %8) #3
  call void @llvm.lifetime.end.p0(i64 8, ptr %7) #3
  call void @llvm.lifetime.end.p0(i64 8, ptr %6) #3
  call void @llvm.lifetime.end.p0(i64 4, ptr %5) #3
  call void @llvm.lifetime.end.p0(i64 4, ptr %4) #3
  call void @llvm.lifetime.end.p0(i64 4, ptr %3) #3
  ret i32 %146
}