; Function Attrs: nounwind uwtable
define internal range(i32 0, 2) i32 @ffc_private_gen_test(i32 %0) #0 {
  %2 = alloca i32, align 4
  call void @llvm.lifetime.start.p0(i64 4, ptr nonnull %2) #3
  store i32 -1, ptr %2, align 4, !tbaa !4
  %3 = tail call ptr @BN_CTX_new_ex(ptr noundef null) #3
  %4 = tail call i32 @test_ptr(ptr noundef nonnull @.str.9, i32 noundef 614, ptr noundef nonnull @.str.57, ptr noundef %3) #3
  %.not = icmp eq i32 %4, 0
  br i1 %.not, label %72, label %5

5:                                                ; preds = %1
  %6 = tail call ptr @BN_new() #3
  %7 = tail call i32 @test_ptr(ptr noundef nonnull @.str.9, i32 noundef 617, ptr noundef nonnull @.str.46, ptr noundef %6) #3
  %.not37 = icmp eq i32 %7, 0
  br i1 %.not37, label %72, label %8

8:                                                ; preds = %5
  %9 = tail call ptr @DH_new_by_nid(i32 noundef 1126) #3
  %10 = tail call i32 @test_ptr(ptr noundef nonnull @.str.9, i32 noundef 620, ptr noundef nonnull @.str.30, ptr noundef %9) #3
  %.not38 = icmp eq i32 %10, 0
  br i1 %.not38, label %72, label %11

11:                                               ; preds = %8
  %12 = tail call ptr @ossl_dh_get0_params(ptr noundef %9) #3
  %13 = getelementptr inbounds nuw i8, ptr %12, i64 8
  %14 = load ptr, ptr %13, align 8, !tbaa !17
  %15 = tail call i32 @BN_num_bits(ptr noundef %14) #3
  %16 = tail call i32 @ossl_ffc_generate_private_key(ptr noundef %3, ptr noundef %12, i32 noundef 220, i32 noundef 112, ptr noundef %6) #3
  %17 = icmp ne i32 %16, 0
  %18 = zext i1 %17 to i32
  %19 = tail call i32 @test_false(ptr noundef nonnull @.str.9, i32 noundef 626, ptr noundef nonnull @.str.58, i32 noundef %18) #3
  %.not39 = icmp eq i32 %19, 0
  br i1 %.not39, label %72, label %20

20:                                               ; preds = %11
  %21 = add nsw i32 %15, 1
  %22 = tail call i32 @ossl_ffc_generate_private_key(ptr noundef %3, ptr noundef nonnull %12, i32 noundef %21, i32 noundef 112, ptr noundef %6) #3
  %23 = icmp ne i32 %22, 0
  %24 = zext i1 %23 to i32
  %25 = tail call i32 @test_false(ptr noundef nonnull @.str.9, i32 noundef 629, ptr noundef nonnull @.str.59, i32 noundef %24) #3
  %.not40 = icmp eq i32 %25, 0
  br i1 %.not40, label %72, label %26

26:                                               ; preds = %20
  %27 = tail call i32 @ossl_ffc_generate_private_key(ptr noundef %3, ptr noundef nonnull %12, i32 noundef %15, i32 noundef 0, ptr noundef %6) #3
  %28 = icmp ne i32 %27, 0
  %29 = zext i1 %28 to i32
  %30 = tail call i32 @test_false(ptr noundef nonnull @.str.9, i32 noundef 632, ptr noundef nonnull @.str.60, i32 noundef %29) #3
  %.not41 = icmp eq i32 %30, 0
  br i1 %.not41, label %72, label %31

31:                                               ; preds = %26
  %32 = tail call i32 @ossl_ffc_generate_private_key(ptr noundef %3, ptr noundef nonnull %12, i32 noundef %15, i32 noundef 112, ptr noundef %6) #3
  %33 = icmp ne i32 %32, 0
  %34 = zext i1 %33 to i32
  %35 = tail call i32 @test_true(ptr noundef nonnull @.str.9, i32 noundef 635, ptr noundef nonnull @.str.61, i32 noundef %34) #3
  %.not42 = icmp eq i32 %35, 0
  br i1 %.not42, label %72, label %36

36:                                               ; preds = %31
  %37 = load ptr, ptr %13, align 8, !tbaa !17
  %38 = call i32 @ossl_ffc_validate_private_key(ptr noundef %37, ptr noundef %6, ptr noundef nonnull %2) #3
  %39 = icmp ne i32 %38, 0
  %40 = zext i1 %39 to i32
  %41 = call i32 @test_true(ptr noundef nonnull @.str.9, i32 noundef 638, ptr noundef nonnull @.str.48, i32 noundef %40) #3
  %.not43 = icmp eq i32 %41, 0
  br i1 %.not43, label %72, label %42

42:                                               ; preds = %36
  %43 = sdiv i32 %15, 2
  %44 = call i32 @ossl_ffc_generate_private_key(ptr noundef %3, ptr noundef nonnull %12, i32 noundef %43, i32 noundef 112, ptr noundef %6) #3
  %45 = icmp ne i32 %44, 0
  %46 = zext i1 %45 to i32
  %47 = call i32 @test_true(ptr noundef nonnull @.str.9, i32 noundef 641, ptr noundef nonnull @.str.62, i32 noundef %46) #3
  %.not44 = icmp eq i32 %47, 0
  br i1 %.not44, label %72, label %48

48:                                               ; preds = %42
  %49 = load ptr, ptr %13, align 8, !tbaa !17
  %50 = call i32 @ossl_ffc_validate_private_key(ptr noundef %49, ptr noundef %6, ptr noundef nonnull %2) #3
  %51 = icmp ne i32 %50, 0
  %52 = zext i1 %51 to i32
  %53 = call i32 @test_true(ptr noundef nonnull @.str.9, i32 noundef 643, ptr noundef nonnull @.str.48, i32 noundef %52) #3
  %.not45 = icmp eq i32 %53, 0
  br i1 %.not45, label %72, label %54

54:                                               ; preds = %48
  %55 = load ptr, ptr %12, align 8, !tbaa !16
  %56 = call i32 @BN_num_bits(ptr noundef %55) #3
  %57 = call zeroext i16 @ossl_ifc_ffc_compute_security_bits(i32 noundef %56) #3
  %58 = zext i16 %57 to i32
  %59 = call i32 @ossl_ffc_generate_private_key(ptr noundef %3, ptr noundef nonnull %12, i32 noundef 0, i32 noundef %58, ptr noundef %6) #3
  %60 = icmp ne i32 %59, 0
  %61 = zext i1 %60 to i32
  %62 = call i32 @test_true(ptr noundef nonnull @.str.9, i32 noundef 648, ptr noundef nonnull @.str.63, i32 noundef %61) #3
  %.not46 = icmp eq i32 %62, 0
  br i1 %.not46, label %72, label %63

63:                                               ; preds = %54
  %64 = call i32 @BN_num_bits(ptr noundef %6) #3
  %65 = call i32 @test_int_le(ptr noundef nonnull @.str.9, i32 noundef 650, ptr noundef nonnull @.str.64, ptr noundef nonnull @.str.65, i32 noundef %64, i32 noundef 225) #3
  %.not47 = icmp eq i32 %65, 0
  br i1 %.not47, label %72, label %66

66:                                               ; preds = %63
  %67 = load ptr, ptr %13, align 8, !tbaa !17
  %68 = call i32 @ossl_ffc_validate_private_key(ptr noundef %67, ptr noundef %6, ptr noundef nonnull %2) #3
  %69 = icmp ne i32 %68, 0
  %70 = zext i1 %69 to i32
  %71 = call i32 @test_true(ptr noundef nonnull @.str.9, i32 noundef 652, ptr noundef nonnull @.str.48, i32 noundef %70) #3
  %.not48 = icmp ne i32 %71, 0
  %spec.select = zext i1 %.not48 to i32
  br label %72

72:                                               ; preds = %66, %63, %54, %48, %42, %36, %31, %26, %20, %11, %8, %5, %1
  %.036 = phi i32 [ 0, %63 ], [ 0, %54 ], [ 0, %48 ], [ 0, %42 ], [ 0, %36 ], [ 0, %31 ], [ 0, %26 ], [ 0, %20 ], [ 0, %11 ], [ 0, %8 ], [ 0, %5 ], [ 0, %1 ], [ %spec.select, %66 ]
  %.035 = phi ptr [ %6, %63 ], [ %6, %54 ], [ %6, %48 ], [ %6, %42 ], [ %6, %36 ], [ %6, %31 ], [ %6, %26 ], [ %6, %20 ], [ %6, %11 ], [ %6, %8 ], [ %6, %5 ], [ null, %1 ], [ %6, %66 ]
  %.0 = phi ptr [ %9, %63 ], [ %9, %54 ], [ %9, %48 ], [ %9, %42 ], [ %9, %36 ], [ %9, %31 ], [ %9, %26 ], [ %9, %20 ], [ %9, %11 ], [ %9, %8 ], [ null, %5 ], [ null, %1 ], [ %9, %66 ]
  call void @DH_free(ptr noundef %.0) #3
  call void @BN_free(ptr noundef %.035) #3
  call void @BN_CTX_free(ptr noundef %3) #3
  call void @llvm.lifetime.end.p0(i64 4, ptr nonnull %2) #3
  ret i32 %.036
}